target datalayout = "e-m:e-p270:32:32-p271:32:32-p272:64:64-i64:64-i128:128-f80:128-n8:16:32:64-S128"
target triple = "x86_64-pc-linux-gnu"

%struct.VuDevRegion = type { i64, i64, i64, i64, i64 }
%struct.VuDev = type { i32, i32, ptr, ptr, %struct.VuDevInflightInfo, i32, %union.pthread_mutex_t, i32, i64, ptr, i64, i64, i8, i16, ptr, ptr, ptr, ptr, ptr, i32, i8 }
%struct.VuDevInflightInfo = type { i32, ptr, i64 }
%union.pthread_mutex_t = type { %struct.__pthread_mutex_s }
%struct.__pthread_mutex_s = type { i32, i32, i32, i32, i32, i16, i16, %struct.__pthread_internal_list }
%struct.__pthread_internal_list = type { ptr, ptr }
%struct.vring_desc = type { i64, i32, i16, i16 }

; Function Attrs: nounwind uwtable
define internal ptr @vu_gpa_to_mem_region(ptr noundef %0, i64 noundef %1) #0 {
  %3 = alloca ptr, align 8
  %4 = alloca ptr, align 8
  %5 = alloca i64, align 8
  %6 = alloca i32, align 4
  %7 = alloca i32, align 4
  %8 = alloca i32, align 4
  %9 = alloca ptr, align 8
  %10 = alloca i32, align 4
  store ptr %0, ptr %4, align 8
  store i64 %1, ptr %5, align 8
  call void @llvm.lifetime.start.p0(i64 4, ptr %6) #13
  store i32 0, ptr %6, align 4
  call void @llvm.lifetime.start.p0(i64 4, ptr %7) #13
  %11 = load ptr, ptr %4, align 8
  %12 = getelementptr inbounds nuw %struct.VuDev, ptr %11, i32 0, i32 1
  %13 = load i32, ptr %12, align 4
  %14 = sub i32 %13, 1
  store i32 %14, ptr %7, align 4
  br label %15

15:                                               ; preds = %74, %2
  %16 = load i32, ptr %6, align 4
  %17 = load i32, ptr %7, align 4
  %18 = icmp sle i32 %16, %17
  br i1 %18, label %19, label %75

19:                                               ; preds = %15
  call void @llvm.lifetime.start.p0(i64 4, ptr %8) #13
  %20 = load i32, ptr %6, align 4
  %21 = load i32, ptr %7, align 4
  %22 = load i32, ptr %6, align 4
  %23 = sub i32 %21, %22
  %24 = sdiv i32 %23, 2
  %25 = add i32 %20, %24
  store i32 %25, ptr %8, align 4
  call void @llvm.lifetime.start.p0(i64 8, ptr %9) #13
  %26 = load ptr, ptr %4, align 8
  %27 = getelementptr inbounds nuw %struct.VuDev, ptr %26, i32 0, i32 2
  %28 = load ptr, ptr %27, align 8
  %29 = load i32, ptr %8, align 4
  %30 = zext i32 %29 to i64
  %31 = getelementptr inbounds nuw %struct.VuDevRegion, ptr %28, i64 %30
  store ptr %31, ptr %9, align 8
  %32 = load i64, ptr %5, align 8
  %33 = load ptr, ptr %9, align 8
  %34 = getelementptr inbounds nuw %struct.VuDevRegion, ptr %33, i32 0, i32 0
  %35 = load i64, ptr %34, align 8
  %36 = icmp uge i64 %32, %35
  br i1 %36, label %37, label %49

37:                                               ; preds = %19
  %38 = load i64, ptr %5, align 8
  %39 = load ptr, ptr %9, align 8
  %40 = getelementptr inbounds nuw %struct.VuDevRegion, ptr %39, i32 0, i32 0
  %41 = load i64, ptr %40, align 8
  %42 = load ptr, ptr %9, align 8
  %43 = getelementptr inbounds nuw %struct.VuDevRegion, ptr %42, i32 0, i32 1
  %44 = load i64, ptr %43, align 8
  %45 = add i64 %41, %44
  %46 = icmp ult i64 %38, %45
  br i1 %46, label %47, label %49

47:                                               ; preds = %37
  %48 = load ptr, ptr %9, align 8
  store ptr %48, ptr %3, align 8
  store i32 1, ptr %10, align 4
  br label %72

49:                                               ; preds = %37, %19
  %50 = load i64, ptr %5, align 8
  %51 = load ptr, ptr %9, align 8
  %52 = getelementptr inbounds nuw %struct.VuDevRegion, ptr %51, i32 0, i32 0
  %53 = load i64, ptr %52, align 8
  %54 = load ptr, ptr %9, align 8
  %55 = getelementptr inbounds nuw %struct.VuDevRegion, ptr %54, i32 0, i32 1
  %56 = load i64, ptr %55, align 8
  %57 = add i64 %53, %56
  %58 = icmp uge i64 %50, %57
  br i1 %58, label %59, label %62

59:                                               ; preds = %49
  %60 = load i32, ptr %8, align 4
  %61 = add i32 %60, 1
  store i32 %61, ptr %6, align 4
  br label %62

62:                                               ; preds = %59, %49
  %63 = load i64, ptr %5, align 8
  %64 = load ptr, ptr %9, align 8
  %65 = getelementptr inbounds nuw %struct.VuDevRegion, ptr %64, i32 0, i32 0
  %66 = load i64, ptr %65, align 8
  %67 = icmp ult i64 %63, %66
  br i1 %67, label %68, label %71

68:                                               ; preds = %62
  %69 = load i32, ptr %8, align 4
  %70 = sub i32 %69, 1
  store i32 %70, ptr %7, align 4
  br label %71

71:                                               ; preds = %68, %62
  store i32 0, ptr %10, align 4
  br label %72

72:                                               ; preds = %71, %47
  call void @llvm.lifetime.end.p0(i64 8, ptr %9) #13
  call void @llvm.lifetime.end.p0(i64 4, ptr %8) #13
  %73 = load i32, ptr %10, align 4
  switch i32 %73, label %76 [
    i32 0, label %74
  ]

74:                                               ; preds = %72
  br label %15

75:                                               ; preds = %15
  store ptr null, ptr %3, align 8
  store i32 1, ptr %10, align 4
  br label %76

76:                                               ; preds = %75, %72
  call void @llvm.lifetime.end.p0(i64 4, ptr %7) #13
  call void @llvm.lifetime.end.p0(i64 4, ptr %6) #13
  %77 = load ptr, ptr %3, align 8
  ret ptr %77
}

; Function Attrs: nounwind uwtable
define dso_local ptr @vu_gpa_to_va(ptr noundef %0, ptr noundef %1, i64 noundef %2) #0 {
  %4 = alloca ptr, align 8
  %5 = alloca ptr, align 8
  %6 = alloca ptr, align 8
  %7 = alloca i64, align 8
  %8 = alloca ptr, align 8
  %9 = alloca i32, align 4
  store ptr %0, ptr %5, align 8
  store ptr %1, ptr %6, align 8
  store i64 %2, ptr %7, align 8
  call void @llvm.lifetime.start.p0(i64 8, ptr %8) #13
  store ptr null, ptr %8, align 8, !annotation !4
  %10 = load ptr, ptr %6, align 8
  %11 = load i64, ptr %10, align 8
  %12 = icmp eq i64 %11, 0
  br i1 %12, label %13, label %14

13:                                               ; preds = %3
  store ptr null, ptr %4, align 8
  store i32 1, ptr %9, align 4
  br label %61

14:                                               ; preds = %3
  %15 = load ptr, ptr %5, align 8
  %16 = load i64, ptr %7, align 8
  %17 = call ptr @vu_gpa_to_mem_region(ptr noundef %15, i64 noundef %16)
  store ptr %17, ptr %8, align 8
  %18 = load ptr, ptr %8, align 8
  %19 = icmp ne ptr %18, null
  br i1 %19, label %21, label %20

20:                                               ; preds = %14
  store ptr null, ptr %4, align 8
  store i32 1, ptr %9, align 4
  br label %61

21:                                               ; preds = %14
  %22 = load i64, ptr %7, align 8
  %23 = load ptr, ptr %6, align 8
  %24 = load i64, ptr %23, align 8
  %25 = add i64 %22, %24
  %26 = load ptr, ptr %8, align 8
  %27 = getelementptr inbounds nuw %struct.VuDevRegion, ptr %26, i32 0, i32 0
  %28 = load i64, ptr %27, align 8
  %29 = load ptr, ptr %8, align 8
  %30 = getelementptr inbounds nuw %struct.VuDevRegion, ptr %29, i32 0, i32 1
  %31 = load i64, ptr %30, align 8
  %32 = add i64 %28, %31
  %33 = icmp ugt i64 %25, %32
  br i1 %33, label %34, label %45

34:                                               ; preds = %21
  %35 = load ptr, ptr %8, align 8
  %36 = getelementptr inbounds nuw %struct.VuDevRegion, ptr %35, i32 0, i32 0
  %37 = load i64, ptr %36, align 8
  %38 = load ptr, ptr %8, align 8
  %39 = getelementptr inbounds nuw %struct.VuDevRegion, ptr %38, i32 0, i32 1
  %40 = load i64, ptr %39, align 8
  %41 = add i64 %37, %40
  %42 = load i64, ptr %7, align 8
  %43 = sub i64 %41, %42
  %44 = load ptr, ptr %6, align 8
  store i64 %43, ptr %44, align 8
  br label %45

45:                                               ; preds = %34, %21
  %46 = load i64, ptr %7, align 8
  %47 = inttoptr i64 %46 to ptr
  %48 = load ptr, ptr %8, align 8
  %49 = getelementptr inbounds nuw %struct.VuDevRegion, ptr %48, i32 0, i32 0
  %50 = load i64, ptr %49, align 8
  %51 = sub i64 0, %50
  %52 = getelementptr inbounds i8, ptr %47, i64 %51
  %53 = load ptr, ptr %8, align 8
  %54 = getelementptr inbounds nuw %struct.VuDevRegion, ptr %53, i32 0, i32 4
  %55 = load i64, ptr %54, align 8
  %56 = getelementptr inbounds nuw i8, ptr %52, i64 %55
  %57 = load ptr, ptr %8, align 8
  %58 = getelementptr inbounds nuw %struct.VuDevRegion, ptr %57, i32 0, i32 3
  %59 = load i64, ptr %58, align 8
  %60 = getelementptr inbounds nuw i8, ptr %56, i64 %59
  store ptr %60, ptr %4, align 8
  store i32 1, ptr %9, align 4
  br label %61

61:                                               ; preds = %45, %20, %13
  call void @llvm.lifetime.end.p0(i64 8, ptr %8) #13
  %62 = load ptr, ptr %4, align 8
  ret ptr %62
}

; Function Attrs: nounwind uwtable
define internal i32 @virtqueue_read_indirect_desc(ptr noundef %0, ptr noundef %1, i64 noundef %2, i64 noundef %3) #0 {
  %5 = alloca i32, align 4
  %6 = alloca ptr, align 8
  %7 = alloca ptr, align 8
  %8 = alloca i64, align 8
  %9 = alloca i64, align 8
  %10 = alloca ptr, align 8
  %11 = alloca i64, align 8
  %12 = alloca i32, align 4
  store ptr %0, ptr %6, align 8
  store ptr %1, ptr %7, align 8
  store i64 %2, ptr %8, align 8
  store i64 %3, ptr %9, align 8
  call void @llvm.lifetime.start.p0(i64 8, ptr %10) #13
  store ptr null, ptr %10, align 8, !annotation !4
  call void @llvm.lifetime.start.p0(i64 8, ptr %11) #13
  store i64 0, ptr %11, align 8, !annotation !4
  %13 = load i64, ptr %9, align 8
  %14 = icmp ugt i64 %13, 16384
  br i1 %14, label %15, label %16

15:                                               ; preds = %4
  store i32 -1, ptr %5, align 4
  store i32 1, ptr %12, align 4
  br label %46

16:                                               ; preds = %4
  %17 = load i64, ptr %9, align 8
  %18 = icmp eq i64 %17, 0
  br i1 %18, label %19, label %20

19:                                               ; preds = %16
  store i32 -1, ptr %5, align 4
  store i32 1, ptr %12, align 4
  br label %46

20:                                               ; preds = %16
  br label %21

21:                                               ; preds = %32, %20
  %22 = load i64, ptr %9, align 8
  %23 = icmp ne i64 %22, 0
  br i1 %23, label %24, label %45

24:                                               ; preds = %21
  %25 = load i64, ptr %9, align 8
  store i64 %25, ptr %11, align 8
  %26 = load ptr, ptr %6, align 8
  %27 = load i64, ptr %8, align 8
  %28 = call ptr @vu_gpa_to_va(ptr noundef %26, ptr noundef %11, i64 noundef %27)
  store ptr %28, ptr %10, align 8
  %29 = load ptr, ptr %10, align 8
  %30 = icmp ne ptr %29, null
  br i1 %30, label %32, label %31

31:                                               ; preds = %24
  store i32 -1, ptr %5, align 4
  store i32 1, ptr %12, align 4
  br label %46

32:                                               ; preds = %24
  %33 = load ptr, ptr %7, align 8
  %34 = load ptr, ptr %10, align 8
  %35 = load i64, ptr %11, align 8
  call void @llvm.memcpy.p0.p0.i64(ptr align 8 %33, ptr align 8 %34, i64 %35, i1 false)
  %36 = load i64, ptr %11, align 8
  %37 = load i64, ptr %9, align 8
  %38 = sub i64 %37, %36
  store i64 %38, ptr %9, align 8
  %39 = load i64, ptr %11, align 8
  %40 = load i64, ptr %8, align 8
  %41 = add i64 %40, %39
  store i64 %41, ptr %8, align 8
  %42 = load i64, ptr %11, align 8
  %43 = load ptr, ptr %7, align 8
  %44 = getelementptr inbounds nuw %struct.vring_desc, ptr %43, i64 %42
  store ptr %44, ptr %7, align 8
  br label %21

45:                                               ; preds = %21
  store i32 0, ptr %5, align 4
  store i32 1, ptr %12, align 4
  br label %46

46:                                               ; preds = %45, %31, %19, %15
  call void @llvm.lifetime.end.p0(i64 8, ptr %11) #13
  call void @llvm.lifetime.end.p0(i64 8, ptr %10) #13
  %47 = load i32, ptr %5, align 4
  ret i32 %47
}