; Function Attrs: nofree norecurse nosync nounwind memory(readwrite, inaccessiblemem: none) uwtable
define internal fastcc range(i32 -1, 1) i32 @virtqueue_read_indirect_desc(ptr noundef readonly captures(none) %0, ptr noundef nonnull writeonly captures(none) %1, i64 noundef %2, i64 noundef range(i64 0, 4294967296) %3) unnamed_addr #12 {
  %5 = add nsw i64 %3, -16385
  %or.cond = icmp ult i64 %5, -16384
  br i1 %or.cond, label %vu_gpa_to_va.exit.thread, label %.lr.ph

.lr.ph:                                           ; preds = %4
  %6 = getelementptr inbounds nuw i8, ptr %0, i64 4
  %7 = getelementptr inbounds nuw i8, ptr %0, i64 8
  br label %8

8:                                                ; preds = %.lr.ph, %22
  %.031 = phi i64 [ %3, %.lr.ph ], [ %35, %22 ]
  %.01230 = phi i64 [ %2, %.lr.ph ], [ %36, %22 ]
  %.01329 = phi ptr [ %1, %.lr.ph ], [ %37, %22 ]
  %9 = load i32, ptr %6, align 4
  %10 = add i32 %9, -1
  %.not37.i.i = icmp slt i32 %10, 0
  br i1 %.not37.i.i, label %vu_gpa_to_va.exit.thread, label %.lr.ph.i.i

.lr.ph.i.i:                                       ; preds = %8
  %11 = load ptr, ptr %7, align 8
  br label %12

12:                                               ; preds = %._crit_edge.i.i, %.lr.ph.i.i
  %.02339.i.i = phi i32 [ 0, %.lr.ph.i.i ], [ %spec.select.i.i, %._crit_edge.i.i ]
  %.02638.i.i = phi i32 [ %10, %.lr.ph.i.i ], [ %.228.i.i, %._crit_edge.i.i ]
  %13 = sub i32 %.02638.i.i, %.02339.i.i
  %14 = sdiv i32 %13, 2
  %15 = add i32 %14, %.02339.i.i
  %16 = zext i32 %15 to i64
  %17 = getelementptr inbounds nuw %struct.VuDevRegion, ptr %11, i64 %16
  %18 = load i64, ptr %17, align 8
  %.not31.i.i = icmp uge i64 %.01230, %18
  %.phi.trans.insert.i.i = getelementptr inbounds nuw i8, ptr %17, i64 8
  %.pre.i.i = load i64, ptr %.phi.trans.insert.i.i, align 8
  %.pre42.i.i = add i64 %.pre.i.i, %18
  %19 = icmp ult i64 %.01230, %.pre42.i.i
  %or.cond.i.i = select i1 %.not31.i.i, i1 %19, i1 false
  br i1 %or.cond.i.i, label %vu_gpa_to_mem_region.exit.i, label %._crit_edge.i.i

._crit_edge.i.i:                                  ; preds = %12
  %20 = add i32 %15, 1
  %spec.select.i.i = select i1 %19, i32 %.02339.i.i, i32 %20
  %21 = add i32 %15, -1
  %.228.i.i = select i1 %.not31.i.i, i32 %.02638.i.i, i32 %21
  %.not.i.i = icmp sgt i32 %spec.select.i.i, %.228.i.i
  br i1 %.not.i.i, label %vu_gpa_to_va.exit.thread, label %12

vu_gpa_to_mem_region.exit.i:                      ; preds = %12
  %.not17 = icmp eq i64 %.01230, 0
  br i1 %.not17, label %vu_gpa_to_va.exit.thread, label %22

22:                                               ; preds = %vu_gpa_to_mem_region.exit.i
  %23 = inttoptr i64 %.01230 to ptr
  %24 = sub i64 0, %18
  %25 = getelementptr inbounds i8, ptr %23, i64 %24
  %26 = getelementptr inbounds nuw i8, ptr %17, i64 32
  %27 = load i64, ptr %26, align 8
  %28 = getelementptr inbounds nuw i8, ptr %25, i64 %27
  %29 = getelementptr inbounds nuw i8, ptr %17, i64 24
  %30 = load i64, ptr %29, align 8
  %31 = getelementptr inbounds nuw i8, ptr %28, i64 %30
  %32 = add i64 %.031, %.01230
  %33 = icmp ugt i64 %32, %.pre42.i.i
  %34 = sub nuw i64 %.pre42.i.i, %.01230
  %spec.select = select i1 %33, i64 %34, i64 %.031
  tail call void @llvm.memcpy.p0.p0.i64(ptr align 8 %.01329, ptr nonnull align 8 %31, i64 %spec.select, i1 false)
  %35 = sub i64 %.031, %spec.select
  %36 = add i64 %spec.select, %.01230
  %37 = getelementptr inbounds nuw %struct.vring_desc, ptr %.01329, i64 %spec.select
  %.not = icmp eq i64 %35, 0
  br i1 %.not, label %vu_gpa_to_va.exit.thread, label %8

vu_gpa_to_va.exit.thread:                         ; preds = %vu_gpa_to_mem_region.exit.i, %22, %8, %._crit_edge.i.i, %4
  %.014 = phi i32 [ -1, %4 ], [ -1, %._crit_edge.i.i ], [ -1, %vu_gpa_to_mem_region.exit.i ], [ 0, %22 ], [ -1, %8 ]
  ret i32 %.014
}